target datalayout = "e-m:e-p270:32:32-p271:32:32-p272:64:64-i64:64-i128:128-f80:128-n8:16:32:64-S128"
target triple = "x86_64-unknown-linux-gnu"

%"struct.node::AssertionInfo" = type { ptr, ptr, ptr }
%"class.v8::IndirectHandleBase" = type { ptr }
%"class.v8::Local.0" = type { %"class.v8::LocalBase.1" }
%"class.v8::LocalBase.1" = type { %"class.v8::IndirectHandleBase" }
%"class.v8::Local.2" = type { %"class.v8::LocalBase.3" }
%"class.v8::LocalBase.3" = type { %"class.v8::IndirectHandleBase" }

@_ZZN4node6Buffer6LengthEN2v85LocalINS1_6ObjectEEEE4args = internal constant %"struct.node::AssertionInfo" { ptr @.str.5, ptr @.str.6, ptr @.str.7 }, align 8

; Function Attrs: mustprogress nounwind uwtable
define dso_local noundef i64 @_ZN4node6Buffer6LengthEN2v85LocalINS1_6ObjectEEE(ptr %obj.coerce) #4 {
entry:
  %this.addr.i30 = alloca ptr, align 8
  %other.addr.i = alloca ptr, align 8
  %this.addr.i.i27 = alloca ptr, align 8
  %other.addr.i.i = alloca ptr, align 8
  %retval.i28 = alloca %"class.v8::Local.2", align 8
  %that.i = alloca %"class.v8::Local.0", align 8
  %ref.tmp.i = alloca %"class.v8::LocalBase.3", align 8
  %slot.addr.i26 = alloca ptr, align 8
  %this.addr.i.i22 = alloca ptr, align 8
  %this.addr.i23 = alloca ptr, align 8
  %slot.addr.i = alloca ptr, align 8
  %this.addr.i.i = alloca ptr, align 8
  %this.addr.i20 = alloca ptr, align 8
  %retval.i = alloca %"class.v8::Local.2", align 8
  %this.addr.i17 = alloca ptr, align 8
  %agg.tmp.i = alloca %"class.v8::Local.0", align 8
  %this.addr.i14 = alloca ptr, align 8
  %this.addr.i = alloca ptr, align 8
  %obj = alloca %"class.v8::Local.0", align 8
  %ui = alloca %"class.v8::Local.2", align 8
  %coerce.dive = getelementptr inbounds %"class.v8::Local.0", ptr %obj, i32 0, i32 0
  %coerce.dive1 = getelementptr inbounds %"class.v8::LocalBase.1", ptr %coerce.dive, i32 0, i32 0
  %coerce.dive2 = getelementptr inbounds %"class.v8::IndirectHandleBase", ptr %coerce.dive1, i32 0, i32 0
  store ptr %obj.coerce, ptr %coerce.dive2, align 8
  br label %do.body

do.body:                                          ; preds = %entry
  store ptr %obj, ptr %this.addr.i, align 8
  %this1.i = load ptr, ptr %this.addr.i, align 8
  store ptr %this1.i, ptr %this.addr.i20, align 8
  %this1.i21 = load ptr, ptr %this.addr.i20, align 8
  store ptr %this1.i21, ptr %this.addr.i.i, align 8
  %this1.i.i = load ptr, ptr %this.addr.i.i, align 8
  %0 = load ptr, ptr %this1.i.i, align 8
  store ptr %0, ptr %slot.addr.i, align 8
  %1 = load ptr, ptr %slot.addr.i, align 8
  %call3 = call noundef zeroext i1 @_ZNK2v85Value17IsArrayBufferViewEv(ptr noundef nonnull align 1 dereferenceable(1) %1)
  %lnot = xor i1 %call3, true
  %lnot4 = xor i1 %lnot, true
  %lnot5 = xor i1 %lnot4, true
  br i1 %lnot5, label %if.then, label %if.end

if.then:                                          ; preds = %do.body
  br label %do.body6

do.body6:                                         ; preds = %if.then
  call void @_ZN4node6AssertERKNS_13AssertionInfoE(ptr noundef nonnull align 8 dereferenceable(24) @_ZZN4node6Buffer6LengthEN2v85LocalINS1_6ObjectEEEE4args)
  call void @abort() #15
  unreachable

do.end:                                           ; No predecessors!
  br label %if.end

if.end:                                           ; preds = %do.end, %do.body
  br label %do.end7

do.end7:                                          ; preds = %if.end
  store ptr %obj, ptr %this.addr.i17, align 8
  %this1.i18 = load ptr, ptr %this.addr.i17, align 8
  call void @llvm.memcpy.p0.p0.i64(ptr align 8 %agg.tmp.i, ptr align 8 %this1.i18, i64 8, i1 false)
  %2 = load ptr, ptr %agg.tmp.i, align 8
  store ptr %2, ptr %that.i, align 8
  store ptr %ref.tmp.i, ptr %this.addr.i30, align 8
  store ptr %that.i, ptr %other.addr.i, align 8
  %this1.i31 = load ptr, ptr %this.addr.i30, align 8
  %3 = load ptr, ptr %other.addr.i, align 8
  call void @llvm.memcpy.p0.p0.i64(ptr align 8 %this1.i31, ptr align 8 %3, i64 8, i1 false)
  store ptr %retval.i28, ptr %this.addr.i.i27, align 8
  store ptr %ref.tmp.i, ptr %other.addr.i.i, align 8
  %this1.i.i29 = load ptr, ptr %this.addr.i.i27, align 8
  %4 = load ptr, ptr %other.addr.i.i, align 8
  call void @llvm.memcpy.p0.p0.i64(ptr align 8 %this1.i.i29, ptr align 8 %4, i64 8, i1 false)
  %5 = load ptr, ptr %retval.i28, align 8
  store ptr %5, ptr %retval.i, align 8
  %6 = load ptr, ptr %retval.i, align 8
  %coerce.dive9 = getelementptr inbounds %"class.v8::Local.2", ptr %ui, i32 0, i32 0
  %coerce.dive10 = getelementptr inbounds %"class.v8::LocalBase.3", ptr %coerce.dive9, i32 0, i32 0
  %coerce.dive11 = getelementptr inbounds %"class.v8::IndirectHandleBase", ptr %coerce.dive10, i32 0, i32 0
  store ptr %6, ptr %coerce.dive11, align 8
  store ptr %ui, ptr %this.addr.i14, align 8
  %this1.i15 = load ptr, ptr %this.addr.i14, align 8
  store ptr %this1.i15, ptr %this.addr.i23, align 8
  %this1.i24 = load ptr, ptr %this.addr.i23, align 8
  store ptr %this1.i24, ptr %this.addr.i.i22, align 8
  %this1.i.i25 = load ptr, ptr %this.addr.i.i22, align 8
  %7 = load ptr, ptr %this1.i.i25, align 8
  store ptr %7, ptr %slot.addr.i26, align 8
  %8 = load ptr, ptr %slot.addr.i26, align 8
  %call13 = call noundef i64 @_ZN2v815ArrayBufferView10ByteLengthEv(ptr noundef nonnull align 1 dereferenceable(1) %8)
  ret i64 %call13
}