; Function Attrs: mustprogress nounwind uwtable
define dso_local noundef i64 @_ZN4node6Buffer6LengthEN2v85LocalINS1_6ObjectEEE(ptr nonnull %obj.coerce) local_unnamed_addr #3 {
entry:
  %call3 = tail call noundef zeroext i1 @_ZNK2v85Value17IsArrayBufferViewEv(ptr noundef nonnull align 1 dereferenceable(1) %obj.coerce) #22
  br i1 %call3, label %do.end7, label %do.body6

do.body6:                                         ; preds = %entry
  tail call void @_ZN4node6AssertERKNS_13AssertionInfoE(ptr noundef nonnull align 8 dereferenceable(24) @_ZZN4node6Buffer6LengthEN2v85LocalINS1_6ObjectEEEE4args) #22
  tail call void @abort() #23
  unreachable

do.end7:                                          ; preds = %entry
  %call13 = tail call noundef i64 @_ZN2v815ArrayBufferView10ByteLengthEv(ptr noundef nonnull align 1 dereferenceable(1) %obj.coerce) #22
  ret i64 %call13
}